target datalayout = "e-m:e-p270:32:32-p271:32:32-p272:64:64-i64:64-i128:128-f80:128-n8:16:32:64-S128"
target triple = "x86_64-pc-linux-gnu"

%struct.AVCodecParserContext = type { ptr, ptr, i64, i64, i64, i32, i32, i64, i64, i64, i64, i32, i32, [4 x i64], [4 x i64], [4 x i64], i32, i64, [4 x i64], i32, i32, i32, i32, [4 x i64], i64, i64, i32, i32, i32, i32, i32, i32, i32, i32, i32 }
%struct.BMPParseContext = type { %struct.ParseContext, i32, i32 }
%struct.ParseContext = type { ptr, i32, i32, i32, i32, i32, i32, i32, i64 }

; Function Attrs: alwaysinline nounwind willreturn memory(none) uwtable
define internal i32 @av_bswap32(i32 noundef %0) #3 {
  %2 = alloca i32, align 4
  store i32 %0, ptr %2, align 4, !tbaa !18
  %3 = load i32, ptr %2, align 4, !tbaa !18
  %4 = shl i32 %3, 8
  %5 = and i32 %4, 65280
  %6 = load i32, ptr %2, align 4, !tbaa !18
  %7 = lshr i32 %6, 8
  %8 = and i32 %7, 255
  %9 = or i32 %5, %8
  %10 = shl i32 %9, 16
  %11 = load i32, ptr %2, align 4, !tbaa !18
  %12 = lshr i32 %11, 16
  %13 = shl i32 %12, 8
  %14 = and i32 %13, 65280
  %15 = load i32, ptr %2, align 4, !tbaa !18
  %16 = lshr i32 %15, 16
  %17 = lshr i32 %16, 8
  %18 = and i32 %17, 255
  %19 = or i32 %14, %18
  %20 = or i32 %10, %19
  ret i32 %20
}

; Function Attrs: nounwind uwtable
define internal i32 @bmp_parse(ptr noundef %0, ptr noundef %1, ptr noundef %2, ptr noundef %3, ptr noundef %4, i32 noundef %5) #0 {
  %7 = alloca i32, align 4
  %8 = alloca ptr, align 8
  %9 = alloca ptr, align 8
  %10 = alloca ptr, align 8
  %11 = alloca ptr, align 8
  %12 = alloca ptr, align 8
  %13 = alloca i32, align 4
  %14 = alloca ptr, align 8
  %15 = alloca i64, align 8
  %16 = alloca i32, align 4
  %17 = alloca i32, align 4
  %18 = alloca i32, align 4
  %19 = alloca i32, align 4
  store ptr %0, ptr %8, align 8, !tbaa !4
  store ptr %1, ptr %9, align 8, !tbaa !9
  store ptr %2, ptr %10, align 8, !tbaa !11
  store ptr %3, ptr %11, align 8, !tbaa !14
  store ptr %4, ptr %12, align 8, !tbaa !16
  store i32 %5, ptr %13, align 4, !tbaa !18
  call void @llvm.lifetime.start.p0(i64 8, ptr %14) #4
  %20 = load ptr, ptr %8, align 8, !tbaa !4
  %21 = getelementptr inbounds nuw %struct.AVCodecParserContext, ptr %20, i32 0, i32 0
  %22 = load ptr, ptr %21, align 8, !tbaa !20
  store ptr %22, ptr %14, align 8, !tbaa !24
  call void @llvm.lifetime.start.p0(i64 8, ptr %15) #4
  %23 = load ptr, ptr %14, align 8, !tbaa !24
  %24 = getelementptr inbounds nuw %struct.BMPParseContext, ptr %23, i32 0, i32 0
  %25 = getelementptr inbounds nuw %struct.ParseContext, ptr %24, i32 0, i32 8
  %26 = load i64, ptr %25, align 8, !tbaa !26
  store i64 %26, ptr %15, align 8, !tbaa !29
  call void @llvm.lifetime.start.p0(i64 4, ptr %16) #4
  store i32 -100, ptr %16, align 4, !tbaa !18
  call void @llvm.lifetime.start.p0(i64 4, ptr %17) #4
  store i32 0, ptr %17, align 4, !tbaa !18
  %27 = load ptr, ptr %11, align 8, !tbaa !14
  store i32 0, ptr %27, align 4, !tbaa !18
  %28 = load ptr, ptr %10, align 8, !tbaa !11
  store ptr null, ptr %28, align 8, !tbaa !16
  br label %29

29:                                               ; preds = %177, %123, %6
  %30 = load ptr, ptr %14, align 8, !tbaa !24
  %31 = getelementptr inbounds nuw %struct.BMPParseContext, ptr %30, i32 0, i32 0
  %32 = getelementptr inbounds nuw %struct.ParseContext, ptr %31, i32 0, i32 5
  %33 = load i32, ptr %32, align 8, !tbaa !30
  %34 = icmp sle i32 %33, 10
  br i1 %34, label %35, label %148

35:                                               ; preds = %29
  br label %36

36:                                               ; preds = %140, %35
  %37 = load i32, ptr %17, align 4, !tbaa !18
  %38 = load i32, ptr %13, align 4, !tbaa !18
  %39 = icmp slt i32 %37, %38
  br i1 %39, label %40, label %143

40:                                               ; preds = %36
  %41 = load i64, ptr %15, align 8, !tbaa !29
  %42 = shl i64 %41, 8
  %43 = load ptr, ptr %12, align 8, !tbaa !16
  %44 = load i32, ptr %17, align 4, !tbaa !18
  %45 = sext i32 %44 to i64
  %46 = getelementptr inbounds i8, ptr %43, i64 %45
  %47 = load i8, ptr %46, align 1, !tbaa !31
  %48 = zext i8 %47 to i64
  %49 = or i64 %42, %48
  store i64 %49, ptr %15, align 8, !tbaa !29
  %50 = load ptr, ptr %14, align 8, !tbaa !24
  %51 = getelementptr inbounds nuw %struct.BMPParseContext, ptr %50, i32 0, i32 0
  %52 = getelementptr inbounds nuw %struct.ParseContext, ptr %51, i32 0, i32 5
  %53 = load i32, ptr %52, align 8, !tbaa !30
  %54 = icmp eq i32 %53, 0
  br i1 %54, label %55, label %76

55:                                               ; preds = %40
  %56 = load i64, ptr %15, align 8, !tbaa !29
  %57 = lshr i64 %56, 48
  %58 = icmp eq i64 %57, 16973
  br i1 %58, label %59, label %75

59:                                               ; preds = %55
  %60 = load i64, ptr %15, align 8, !tbaa !29
  %61 = lshr i64 %60, 16
  %62 = trunc i64 %61 to i32
  %63 = call i32 @av_bswap32(i32 noundef %62) #5
  %64 = load ptr, ptr %14, align 8, !tbaa !24
  %65 = getelementptr inbounds nuw %struct.BMPParseContext, ptr %64, i32 0, i32 1
  store i32 %63, ptr %65, align 8, !tbaa !32
  %66 = load ptr, ptr %14, align 8, !tbaa !24
  %67 = getelementptr inbounds nuw %struct.BMPParseContext, ptr %66, i32 0, i32 1
  %68 = load i32, ptr %67, align 8, !tbaa !32
  %69 = icmp ugt i32 %68, 17
  br i1 %69, label %70, label %74

70:                                               ; preds = %59
  %71 = load ptr, ptr %14, align 8, !tbaa !24
  %72 = getelementptr inbounds nuw %struct.BMPParseContext, ptr %71, i32 0, i32 0
  %73 = getelementptr inbounds nuw %struct.ParseContext, ptr %72, i32 0, i32 5
  store i32 1, ptr %73, align 8, !tbaa !30
  br label %74

74:                                               ; preds = %70, %59
  br label %75

75:                                               ; preds = %74, %55
  br label %139

76:                                               ; preds = %40
  %77 = load ptr, ptr %14, align 8, !tbaa !24
  %78 = getelementptr inbounds nuw %struct.BMPParseContext, ptr %77, i32 0, i32 0
  %79 = getelementptr inbounds nuw %struct.ParseContext, ptr %78, i32 0, i32 5
  %80 = load i32, ptr %79, align 8, !tbaa !30
  %81 = icmp eq i32 %80, 10
  br i1 %81, label %82, label %125

82:                                               ; preds = %76
  call void @llvm.lifetime.start.p0(i64 4, ptr %18) #4
  %83 = load i64, ptr %15, align 8, !tbaa !29
  %84 = trunc i64 %83 to i32
  %85 = call i32 @av_bswap32(i32 noundef %84) #5
  store i32 %85, ptr %18, align 4, !tbaa !18
  %86 = load i32, ptr %18, align 4, !tbaa !18
  %87 = icmp ult i32 %86, 12
  br i1 %87, label %91, label %88

88:                                               ; preds = %82
  %89 = load i32, ptr %18, align 4, !tbaa !18
  %90 = icmp ugt i32 %89, 200
  br i1 %90, label %91, label %95

91:                                               ; preds = %88, %82
  %92 = load ptr, ptr %14, align 8, !tbaa !24
  %93 = getelementptr inbounds nuw %struct.BMPParseContext, ptr %92, i32 0, i32 0
  %94 = getelementptr inbounds nuw %struct.ParseContext, ptr %93, i32 0, i32 5
  store i32 0, ptr %94, align 8, !tbaa !30
  store i32 5, ptr %19, align 4
  br label %123

95:                                               ; preds = %88
  %96 = load ptr, ptr %14, align 8, !tbaa !24
  %97 = getelementptr inbounds nuw %struct.BMPParseContext, ptr %96, i32 0, i32 0
  %98 = getelementptr inbounds nuw %struct.ParseContext, ptr %97, i32 0, i32 5
  %99 = load i32, ptr %98, align 8, !tbaa !30
  %100 = add nsw i32 %99, 1
  store i32 %100, ptr %98, align 8, !tbaa !30
  %101 = load ptr, ptr %14, align 8, !tbaa !24
  %102 = getelementptr inbounds nuw %struct.BMPParseContext, ptr %101, i32 0, i32 1
  %103 = load i32, ptr %102, align 8, !tbaa !32
  %104 = load i32, ptr %17, align 4, !tbaa !18
  %105 = add i32 %103, %104
  %106 = sub i32 %105, 17
  %107 = load ptr, ptr %14, align 8, !tbaa !24
  %108 = getelementptr inbounds nuw %struct.BMPParseContext, ptr %107, i32 0, i32 2
  store i32 %106, ptr %108, align 4, !tbaa !33
  %109 = load ptr, ptr %14, align 8, !tbaa !24
  %110 = getelementptr inbounds nuw %struct.BMPParseContext, ptr %109, i32 0, i32 0
  %111 = getelementptr inbounds nuw %struct.ParseContext, ptr %110, i32 0, i32 1
  %112 = load i32, ptr %111, align 8, !tbaa !34
  %113 = load i32, ptr %17, align 4, !tbaa !18
  %114 = add nsw i32 %112, %113
  %115 = icmp sgt i32 %114, 17
  br i1 %115, label %116, label %119

116:                                              ; preds = %95
  %117 = load i32, ptr %17, align 4, !tbaa !18
  %118 = sub nsw i32 %117, 17
  store i32 %118, ptr %16, align 4, !tbaa !18
  store i64 0, ptr %15, align 8, !tbaa !29
  store i32 3, ptr %19, align 4
  br label %123

119:                                              ; preds = %95
  %120 = load ptr, ptr %14, align 8, !tbaa !24
  %121 = getelementptr inbounds nuw %struct.BMPParseContext, ptr %120, i32 0, i32 0
  %122 = getelementptr inbounds nuw %struct.ParseContext, ptr %121, i32 0, i32 8
  store i64 0, ptr %122, align 8, !tbaa !26
  store i32 2, ptr %19, align 4
  br label %123

123:                                              ; preds = %119, %116, %91
  call void @llvm.lifetime.end.p0(i64 4, ptr %18) #4
  %124 = load i32, ptr %19, align 4
  switch i32 %124, label %232 [
    i32 5, label %140
    i32 3, label %143
    i32 2, label %29
  ]

125:                                              ; preds = %76
  %126 = load ptr, ptr %14, align 8, !tbaa !24
  %127 = getelementptr inbounds nuw %struct.BMPParseContext, ptr %126, i32 0, i32 0
  %128 = getelementptr inbounds nuw %struct.ParseContext, ptr %127, i32 0, i32 5
  %129 = load i32, ptr %128, align 8, !tbaa !30
  %130 = icmp ne i32 %129, 0
  br i1 %130, label %131, label %137

131:                                              ; preds = %125
  %132 = load ptr, ptr %14, align 8, !tbaa !24
  %133 = getelementptr inbounds nuw %struct.BMPParseContext, ptr %132, i32 0, i32 0
  %134 = getelementptr inbounds nuw %struct.ParseContext, ptr %133, i32 0, i32 5
  %135 = load i32, ptr %134, align 8, !tbaa !30
  %136 = add nsw i32 %135, 1
  store i32 %136, ptr %134, align 8, !tbaa !30
  br label %137

137:                                              ; preds = %131, %125
  br label %138

138:                                              ; preds = %137
  br label %139

139:                                              ; preds = %138, %75
  br label %140

140:                                              ; preds = %139, %123
  %141 = load i32, ptr %17, align 4, !tbaa !18
  %142 = add nsw i32 %141, 1
  store i32 %142, ptr %17, align 4, !tbaa !18
  br label %36, !llvm.loop !35

143:                                              ; preds = %123, %36
  %144 = load i64, ptr %15, align 8, !tbaa !29
  %145 = load ptr, ptr %14, align 8, !tbaa !24
  %146 = getelementptr inbounds nuw %struct.BMPParseContext, ptr %145, i32 0, i32 0
  %147 = getelementptr inbounds nuw %struct.ParseContext, ptr %146, i32 0, i32 8
  store i64 %144, ptr %147, align 8, !tbaa !26
  br label %182

148:                                              ; preds = %29
  %149 = load ptr, ptr %14, align 8, !tbaa !24
  %150 = getelementptr inbounds nuw %struct.BMPParseContext, ptr %149, i32 0, i32 2
  %151 = load i32, ptr %150, align 4, !tbaa !33
  %152 = icmp ne i32 %151, 0
  br i1 %152, label %153, label %181

153:                                              ; preds = %148
  %154 = load ptr, ptr %14, align 8, !tbaa !24
  %155 = getelementptr inbounds nuw %struct.BMPParseContext, ptr %154, i32 0, i32 2
  %156 = load i32, ptr %155, align 4, !tbaa !33
  %157 = load i32, ptr %13, align 4, !tbaa !18
  %158 = icmp ugt i32 %156, %157
  br i1 %158, label %159, label %161

159:                                              ; preds = %153
  %160 = load i32, ptr %13, align 4, !tbaa !18
  br label %165

161:                                              ; preds = %153
  %162 = load ptr, ptr %14, align 8, !tbaa !24
  %163 = getelementptr inbounds nuw %struct.BMPParseContext, ptr %162, i32 0, i32 2
  %164 = load i32, ptr %163, align 4, !tbaa !33
  br label %165

165:                                              ; preds = %161, %159
  %166 = phi i32 [ %160, %159 ], [ %164, %161 ]
  store i32 %166, ptr %17, align 4, !tbaa !18
  %167 = load i32, ptr %17, align 4, !tbaa !18
  %168 = load ptr, ptr %14, align 8, !tbaa !24
  %169 = getelementptr inbounds nuw %struct.BMPParseContext, ptr %168, i32 0, i32 2
  %170 = load i32, ptr %169, align 4, !tbaa !33
  %171 = sub i32 %170, %167
  store i32 %171, ptr %169, align 4, !tbaa !33
  %172 = load ptr, ptr %14, align 8, !tbaa !24
  %173 = getelementptr inbounds nuw %struct.BMPParseContext, ptr %172, i32 0, i32 2
  %174 = load i32, ptr %173, align 4, !tbaa !33
  %175 = icmp ne i32 %174, 0
  br i1 %175, label %176, label %177

176:                                              ; preds = %165
  br label %183

177:                                              ; preds = %165
  %178 = load ptr, ptr %14, align 8, !tbaa !24
  %179 = getelementptr inbounds nuw %struct.BMPParseContext, ptr %178, i32 0, i32 0
  %180 = getelementptr inbounds nuw %struct.ParseContext, ptr %179, i32 0, i32 5
  store i32 0, ptr %180, align 8, !tbaa !30
  br label %29

181:                                              ; preds = %148
  br label %182

182:                                              ; preds = %181, %143
  br label %183

183:                                              ; preds = %182, %176
  %184 = load ptr, ptr %14, align 8, !tbaa !24
  %185 = getelementptr inbounds nuw %struct.BMPParseContext, ptr %184, i32 0, i32 0
  %186 = load i32, ptr %16, align 4, !tbaa !18
  %187 = call i32 @ff_combine_frame(ptr noundef %185, i32 noundef %186, ptr noundef %12, ptr noundef %13)
  %188 = icmp slt i32 %187, 0
  br i1 %188, label %189, label %191

189:                                              ; preds = %183
  %190 = load i32, ptr %13, align 4, !tbaa !18
  store i32 %190, ptr %7, align 4
  store i32 1, ptr %19, align 4
  br label %230

191:                                              ; preds = %183
  %192 = load i32, ptr %16, align 4, !tbaa !18
  %193 = icmp ne i32 %192, -100
  br i1 %193, label %194, label %220

194:                                              ; preds = %191
  %195 = load i32, ptr %16, align 4, !tbaa !18
  %196 = icmp slt i32 %195, 0
  br i1 %196, label %197, label %220

197:                                              ; preds = %194
  %198 = load ptr, ptr %14, align 8, !tbaa !24
  %199 = getelementptr inbounds nuw %struct.BMPParseContext, ptr %198, i32 0, i32 0
  %200 = getelementptr inbounds nuw %struct.ParseContext, ptr %199, i32 0, i32 5
  %201 = load i32, ptr %200, align 8, !tbaa !30
  %202 = load i32, ptr %17, align 4, !tbaa !18
  %203 = sub nsw i32 %201, %202
  %204 = sub nsw i32 %203, 1
  %205 = icmp sgt i32 %204, 0
  br i1 %205, label %206, label %214

206:                                              ; preds = %197
  %207 = load ptr, ptr %14, align 8, !tbaa !24
  %208 = getelementptr inbounds nuw %struct.BMPParseContext, ptr %207, i32 0, i32 0
  %209 = getelementptr inbounds nuw %struct.ParseContext, ptr %208, i32 0, i32 5
  %210 = load i32, ptr %209, align 8, !tbaa !30
  %211 = load i32, ptr %17, align 4, !tbaa !18
  %212 = sub nsw i32 %210, %211
  %213 = sub nsw i32 %212, 1
  br label %215

214:                                              ; preds = %197
  br label %215

215:                                              ; preds = %214, %206
  %216 = phi i32 [ %213, %206 ], [ 0, %214 ]
  %217 = load ptr, ptr %14, align 8, !tbaa !24
  %218 = getelementptr inbounds nuw %struct.BMPParseContext, ptr %217, i32 0, i32 0
  %219 = getelementptr inbounds nuw %struct.ParseContext, ptr %218, i32 0, i32 5
  store i32 %216, ptr %219, align 8, !tbaa !30
  br label %224

220:                                              ; preds = %194, %191
  %221 = load ptr, ptr %14, align 8, !tbaa !24
  %222 = getelementptr inbounds nuw %struct.BMPParseContext, ptr %221, i32 0, i32 0
  %223 = getelementptr inbounds nuw %struct.ParseContext, ptr %222, i32 0, i32 5
  store i32 0, ptr %223, align 8, !tbaa !30
  br label %224

224:                                              ; preds = %220, %215
  %225 = load ptr, ptr %12, align 8, !tbaa !16
  %226 = load ptr, ptr %10, align 8, !tbaa !11
  store ptr %225, ptr %226, align 8, !tbaa !16
  %227 = load i32, ptr %13, align 4, !tbaa !18
  %228 = load ptr, ptr %11, align 8, !tbaa !14
  store i32 %227, ptr %228, align 4, !tbaa !18
  %229 = load i32, ptr %16, align 4, !tbaa !18
  store i32 %229, ptr %7, align 4
  store i32 1, ptr %19, align 4
  br label %230

230:                                              ; preds = %224, %189
  call void @llvm.lifetime.end.p0(i64 4, ptr %17) #4
  call void @llvm.lifetime.end.p0(i64 4, ptr %16) #4
  call void @llvm.lifetime.end.p0(i64 8, ptr %15) #4
  call void @llvm.lifetime.end.p0(i64 8, ptr %14) #4
  %231 = load i32, ptr %7, align 4
  ret i32 %231

232:                                              ; preds = %123
  unreachable
}