; Function Attrs: nounwind uwtable
define internal i32 @bmp_parse(ptr noundef readonly captures(none) %0, ptr readnone captures(none) %1, ptr noundef writeonly captures(none) initializes((0, 8)) %2, ptr noundef writeonly captures(none) initializes((0, 4)) %3, ptr noundef %4, i32 noundef %5) #0 {
  %7 = alloca ptr, align 8
  %8 = alloca i32, align 4
  store ptr %4, ptr %7, align 8, !tbaa !4
  store i32 %5, ptr %8, align 4, !tbaa !9
  %9 = load ptr, ptr %0, align 8, !tbaa !11
  %10 = getelementptr inbounds nuw i8, ptr %9, i64 40
  %11 = load i64, ptr %10, align 8, !tbaa !15
  store i32 0, ptr %3, align 4, !tbaa !9
  store ptr null, ptr %2, align 8, !tbaa !4
  %12 = getelementptr inbounds nuw i8, ptr %9, i64 24
  %.promoted120 = load i32, ptr %12, align 8, !tbaa !18
  %13 = getelementptr inbounds nuw i8, ptr %9, i64 52
  %14 = getelementptr inbounds nuw i8, ptr %9, i64 48
  %15 = getelementptr inbounds nuw i8, ptr %9, i64 8
  br label %.outer

.outer:                                           ; preds = %49, %6
  %16 = phi i32 [ 11, %49 ], [ %.promoted120, %6 ]
  %.061.ph = phi i64 [ %28, %49 ], [ %11, %6 ]
  %.057.ph = phi i32 [ %42, %49 ], [ 0, %6 ]
  %17 = icmp slt i32 %16, 11
  br i1 %17, label %.preheader, label %.lr.ph

.lr.ph:                                           ; preds = %.outer
  %.promoted89 = load i32, ptr %13, align 4, !tbaa !19
  %.not.us = icmp eq i32 %.promoted89, 0
  br i1 %.not.us, label %.loopexit78, label %18

18:                                               ; preds = %.lr.ph
  %..us = tail call i32 @llvm.umin.i32(i32 %.promoted89, i32 %5)
  %19 = sub i32 %.promoted89, %..us
  store i32 %19, ptr %13, align 4, !tbaa !19
  %.not70.not.us = icmp ugt i32 %.promoted89, %5
  br i1 %.not70.not.us, label %.loopexit78, label %..preheader_crit_edge.split.us

..preheader_crit_edge.split.us:                   ; preds = %18
  store i32 0, ptr %12, align 8, !tbaa !18
  br label %.preheader

.preheader:                                       ; preds = %..preheader_crit_edge.split.us, %.outer
  %20 = phi i32 [ 0, %..preheader_crit_edge.split.us ], [ %16, %.outer ]
  %.057.lcssa = phi i32 [ %..us, %..preheader_crit_edge.split.us ], [ %.057.ph, %.outer ]
  %21 = icmp slt i32 %.057.lcssa, %5
  br i1 %21, label %.lr.ph113.preheader, label %.loopexit

.lr.ph113.preheader:                              ; preds = %.preheader
  %22 = sext i32 %.057.lcssa to i64
  br label %.lr.ph113

.lr.ph113:                                        ; preds = %.lr.ph113.preheader, %52
  %indvars.iv = phi i64 [ %22, %.lr.ph113.preheader ], [ %indvars.iv.next, %52 ]
  %23 = phi i32 [ %20, %.lr.ph113.preheader ], [ %53, %52 ]
  %.162111 = phi i64 [ %.061.ph, %.lr.ph113.preheader ], [ %28, %52 ]
  %24 = shl i64 %.162111, 8
  %25 = getelementptr inbounds i8, ptr %4, i64 %indvars.iv
  %26 = load i8, ptr %25, align 1, !tbaa !20
  %27 = zext i8 %26 to i64
  %28 = or disjoint i64 %24, %27
  switch i32 %23, label %50 [
    i32 0, label %29
    i32 10, label %37
  ]

29:                                               ; preds = %.lr.ph113
  %30 = and i64 %.162111, 72056494526300160
  %31 = icmp eq i64 %30, 18662010858242048
  br i1 %31, label %32, label %52

32:                                               ; preds = %29
  %33 = lshr i64 %24, 16
  %34 = trunc i64 %33 to i32
  %35 = tail call i32 @llvm.bswap.i32(i32 %34)
  store i32 %35, ptr %14, align 8, !tbaa !21
  %36 = icmp ugt i32 %35, 17
  br i1 %36, label %.sink.split, label %52

37:                                               ; preds = %.lr.ph113
  %38 = trunc i64 %28 to i32
  %39 = tail call i32 @llvm.bswap.i32(i32 %38)
  %40 = add i32 %39, -201
  %or.cond = icmp ult i32 %40, -189
  br i1 %or.cond, label %.sink.split, label %41

41:                                               ; preds = %37
  %42 = trunc nsw i64 %indvars.iv to i32
  store i32 11, ptr %12, align 8, !tbaa !18
  %43 = load i32, ptr %14, align 8, !tbaa !21
  %44 = add i32 %42, -17
  %45 = add i32 %44, %43
  store i32 %45, ptr %13, align 4, !tbaa !19
  %46 = load i32, ptr %15, align 8, !tbaa !22
  %47 = add nsw i32 %46, %42
  %48 = icmp sgt i32 %47, 17
  br i1 %48, label %.loopexit, label %49

49:                                               ; preds = %41
  store i64 0, ptr %10, align 8, !tbaa !15
  br label %.outer

50:                                               ; preds = %.lr.ph113
  %51 = add nsw i32 %23, 1
  br label %.sink.split

.sink.split:                                      ; preds = %37, %32, %50
  %.sink = phi i32 [ %51, %50 ], [ 1, %32 ], [ 0, %37 ]
  store i32 %.sink, ptr %12, align 8, !tbaa !18
  br label %52

52:                                               ; preds = %.sink.split, %32, %29
  %53 = phi i32 [ 0, %32 ], [ 0, %29 ], [ %.sink, %.sink.split ]
  %indvars.iv.next = add nsw i64 %indvars.iv, 1
  %lftr.wideiv = trunc i64 %indvars.iv.next to i32
  %exitcond.not = icmp eq i32 %5, %lftr.wideiv
  br i1 %exitcond.not, label %.loopexit, label %.lr.ph113, !llvm.loop !23

.loopexit:                                        ; preds = %.preheader, %41, %52
  %.184 = phi i32 [ %5, %52 ], [ %.057.lcssa, %.preheader ], [ %42, %41 ]
  %.263 = phi i64 [ %28, %52 ], [ %.061.ph, %.preheader ], [ 0, %41 ]
  %.260 = phi i32 [ -100, %52 ], [ -100, %.preheader ], [ %44, %41 ]
  store i64 %.263, ptr %10, align 8, !tbaa !15
  br label %.loopexit78

.loopexit78:                                      ; preds = %18, %.lr.ph, %.loopexit
  %.5 = phi i32 [ %.260, %.loopexit ], [ -100, %.lr.ph ], [ -100, %18 ]
  %.2 = phi i32 [ %.184, %.loopexit ], [ %..us, %18 ], [ %.057.ph, %.lr.ph ]
  %54 = call i32 @ff_combine_frame(ptr noundef nonnull %9, i32 noundef %.5, ptr noundef nonnull %7, ptr noundef nonnull %8) #3
  %55 = icmp slt i32 %54, 0
  br i1 %55, label %56, label %58

56:                                               ; preds = %.loopexit78
  %57 = load i32, ptr %8, align 4, !tbaa !9
  br label %68

58:                                               ; preds = %.loopexit78
  %59 = icmp ne i32 %.5, -100
  %60 = icmp slt i32 %.5, 0
  %or.cond3 = and i1 %59, %60
  br i1 %or.cond3, label %61, label %65

61:                                               ; preds = %58
  %62 = load i32, ptr %12, align 8, !tbaa !18
  %63 = xor i32 %.2, -1
  %64 = add i32 %62, %63
  %spec.select = call i32 @llvm.smax.i32(i32 %64, i32 0)
  br label %65

65:                                               ; preds = %58, %61
  %storemerge = phi i32 [ %spec.select, %61 ], [ 0, %58 ]
  store i32 %storemerge, ptr %12, align 8, !tbaa !18
  %66 = load ptr, ptr %7, align 8, !tbaa !4
  store ptr %66, ptr %2, align 8, !tbaa !4
  %67 = load i32, ptr %8, align 4, !tbaa !9
  store i32 %67, ptr %3, align 4, !tbaa !9
  br label %68

68:                                               ; preds = %65, %56
  %.056 = phi i32 [ %57, %56 ], [ %.5, %65 ]
  ret i32 %.056
}